; Function Attrs: nounwind uwtable
define ptr @l_Lean_Widget_makePopup_maybeWithoutTopLevelHighlight(i8 noundef zeroext %0, ptr noundef %1) local_unnamed_addr #1 {
  %3 = icmp eq i8 %0, 0
  %4 = ptrtoint ptr %1 to i64
  %5 = and i64 %4, 1
  %.not20 = icmp eq i64 %5, 0
  br i1 %3, label %6, label %13

6:                                                ; preds = %2
  br i1 %.not20, label %7, label %lean_inc.exit10

7:                                                ; preds = %6
  %.val.i = load i32, ptr %1, align 4, !tbaa !8
  %8 = icmp sgt i32 %.val.i, 0
  br i1 %8, label %9, label %11, !prof !11

9:                                                ; preds = %7
  %10 = add nuw i32 %.val.i, 1
  store i32 %10, ptr %1, align 4, !tbaa !8
  br label %lean_inc.exit10

11:                                               ; preds = %7
  %.not.i = icmp eq i32 %.val.i, 0
  br i1 %.not.i, label %lean_inc.exit10, label %12

12:                                               ; preds = %11
  tail call void @lean_inc_ref_cold(ptr noundef nonnull %1) #5
  br label %lean_inc.exit10

13:                                               ; preds = %2
  br i1 %.not20, label %lean_obj_tag.exit.thread, label %lean_obj_tag.exit

lean_obj_tag.exit:                                ; preds = %13
  %14 = and i64 %4, 8589934590
  %15 = icmp eq i64 %14, 4
  br i1 %15, label %18, label %lean_inc.exit10

lean_obj_tag.exit.thread:                         ; preds = %13
  %16 = getelementptr i8, ptr %1, i64 4
  %.val.i12 = load i32, ptr %16, align 4
  %.mask = and i32 %.val.i12, -16777216
  %17 = icmp eq i32 %.mask, 33554432
  br i1 %17, label %18, label %.thread

18:                                               ; preds = %lean_obj_tag.exit.thread, %lean_obj_tag.exit
  %19 = getelementptr inbounds nuw i8, ptr %1, i64 16
  %20 = load ptr, ptr %19, align 8, !tbaa !4
  %21 = ptrtoint ptr %20 to i64
  %22 = and i64 %21, 1
  %.not = icmp eq i64 %22, 0
  br i1 %.not, label %23, label %lean_inc.exit10

23:                                               ; preds = %18
  %.val.i13 = load i32, ptr %20, align 4, !tbaa !8
  %24 = icmp sgt i32 %.val.i13, 0
  br i1 %24, label %25, label %27, !prof !11

25:                                               ; preds = %23
  %26 = add nuw i32 %.val.i13, 1
  store i32 %26, ptr %20, align 4, !tbaa !8
  br label %lean_inc.exit10

27:                                               ; preds = %23
  %.not.i14 = icmp eq i32 %.val.i13, 0
  br i1 %.not.i14, label %lean_inc.exit10, label %28

28:                                               ; preds = %27
  tail call void @lean_inc_ref_cold(ptr noundef nonnull %20) #5
  br label %lean_inc.exit10

.thread:                                          ; preds = %lean_obj_tag.exit.thread
  %.val.i16 = load i32, ptr %1, align 4, !tbaa !8
  %29 = icmp sgt i32 %.val.i16, 0
  br i1 %29, label %30, label %32, !prof !11

30:                                               ; preds = %.thread
  %31 = add nuw i32 %.val.i16, 1
  store i32 %31, ptr %1, align 4, !tbaa !8
  br label %lean_inc.exit10

32:                                               ; preds = %.thread
  %.not.i17 = icmp eq i32 %.val.i16, 0
  br i1 %.not.i17, label %lean_inc.exit10, label %33

33:                                               ; preds = %32
  tail call void @lean_inc_ref_cold(ptr noundef nonnull %1) #5
  br label %lean_inc.exit10

lean_inc.exit10:                                  ; preds = %lean_obj_tag.exit, %30, %32, %33, %18, %25, %27, %28, %6, %9, %11, %12
  %.0 = phi ptr [ %1, %12 ], [ %1, %11 ], [ %1, %9 ], [ %1, %6 ], [ %20, %28 ], [ %20, %27 ], [ %20, %25 ], [ %20, %18 ], [ %1, %33 ], [ %1, %32 ], [ %1, %30 ], [ %1, %lean_obj_tag.exit ]
  ret ptr %.0
}